target datalayout = "e-m:e-p270:32:32-p271:32:32-p272:64:64-i64:64-i128:128-f80:128-n8:16:32:64-S128"
target triple = "x86_64-pc-linux-gnu"

@.str.1 = private unnamed_addr constant [10 x i8] c"varchar.c\00", align 1
@.str.3 = private unnamed_addr constant [46 x i8] c"value too long for type character varying(%d)\00", align 1
@__func__.varchar_input = private unnamed_addr constant [14 x i8] c"varchar_input\00", align 1

; Function Attrs: nounwind uwtable
define internal ptr @varchar_input(ptr noundef %0, i64 noundef %1, i32 noundef %2, ptr noundef %3) #0 {
  %5 = alloca ptr, align 8
  %6 = alloca ptr, align 8
  %7 = alloca i64, align 8
  %8 = alloca i32, align 4
  %9 = alloca ptr, align 8
  %10 = alloca ptr, align 8
  %11 = alloca i64, align 8
  %12 = alloca i64, align 8
  %13 = alloca i64, align 8
  %14 = alloca ptr, align 8
  %15 = alloca i32, align 4
  store ptr %0, ptr %6, align 8
  store i64 %1, ptr %7, align 8
  store i32 %2, ptr %8, align 4
  store ptr %3, ptr %9, align 8
  call void @llvm.lifetime.start.p0(i64 8, ptr %10) #8
  call void @llvm.lifetime.start.p0(i64 8, ptr %11) #8
  %16 = load i32, ptr %8, align 4
  %17 = sub i32 %16, 4
  %18 = sext i32 %17 to i64
  store i64 %18, ptr %11, align 8
  %19 = load i32, ptr %8, align 4
  %20 = icmp sge i32 %19, 4
  br i1 %20, label %21, label %71

21:                                               ; preds = %4
  %22 = load i64, ptr %7, align 8
  %23 = load i64, ptr %11, align 8
  %24 = icmp ugt i64 %22, %23
  br i1 %24, label %25, label %71

25:                                               ; preds = %21
  call void @llvm.lifetime.start.p0(i64 8, ptr %12) #8
  %26 = load ptr, ptr %6, align 8
  %27 = load i64, ptr %7, align 8
  %28 = trunc i64 %27 to i32
  %29 = load i64, ptr %11, align 8
  %30 = trunc i64 %29 to i32
  %31 = call i32 @pg_mbcharcliplen(ptr noundef %26, i32 noundef %28, i32 noundef %30)
  %32 = sext i32 %31 to i64
  store i64 %32, ptr %12, align 8
  call void @llvm.lifetime.start.p0(i64 8, ptr %13) #8
  %33 = load i64, ptr %12, align 8
  store i64 %33, ptr %13, align 8
  br label %34

34:                                               ; preds = %63, %25
  %35 = load i64, ptr %13, align 8
  %36 = load i64, ptr %7, align 8
  %37 = icmp ult i64 %35, %36
  br i1 %37, label %38, label %66

38:                                               ; preds = %34
  %39 = load ptr, ptr %6, align 8
  %40 = load i64, ptr %13, align 8
  %41 = getelementptr inbounds nuw i8, ptr %39, i64 %40
  %42 = load i8, ptr %41, align 1
  %43 = sext i8 %42 to i32
  %44 = icmp ne i32 %43, 32
  br i1 %44, label %45, label %62

45:                                               ; preds = %38
  br label %46

46:                                               ; preds = %45
  br label %47

47:                                               ; preds = %46
  call void @llvm.lifetime.start.p0(i64 8, ptr %14) #8
  %48 = load ptr, ptr %9, align 8
  store ptr %48, ptr %14, align 8
  %49 = load ptr, ptr %14, align 8
  %50 = call zeroext i1 @errsave_start(ptr noundef %49, ptr noundef null)
  br i1 %50, label %51, label %57

51:                                               ; preds = %47
  %52 = call i32 @errcode(i32 noundef 16777346)
  %53 = load i64, ptr %11, align 8
  %54 = trunc i64 %53 to i32
  %55 = call i32 (ptr, ...) @errmsg(ptr noundef @.str.3, i32 noundef %54)
  %56 = load ptr, ptr %14, align 8
  call void @errsave_finish(ptr noundef %56, ptr noundef @.str.1, i32 noundef 476, ptr noundef @__func__.varchar_input)
  br label %57

57:                                               ; preds = %51, %47
  call void @llvm.lifetime.end.p0(i64 8, ptr %14) #8
  br label %58

58:                                               ; preds = %57
  br label %59

59:                                               ; preds = %58
  store ptr null, ptr %5, align 8
  store i32 1, ptr %15, align 4
  br label %68

60:                                               ; No predecessors!
  br label %61

61:                                               ; preds = %60
  br label %62

62:                                               ; preds = %61, %38
  br label %63

63:                                               ; preds = %62
  %64 = load i64, ptr %13, align 8
  %65 = add i64 %64, 1
  store i64 %65, ptr %13, align 8
  br label %34, !llvm.loop !10

66:                                               ; preds = %34
  %67 = load i64, ptr %12, align 8
  store i64 %67, ptr %7, align 8
  store i32 0, ptr %15, align 4
  br label %68

68:                                               ; preds = %66, %59
  call void @llvm.lifetime.end.p0(i64 8, ptr %13) #8
  call void @llvm.lifetime.end.p0(i64 8, ptr %12) #8
  %69 = load i32, ptr %15, align 4
  switch i32 %69, label %77 [
    i32 0, label %70
  ]

70:                                               ; preds = %68
  br label %71

71:                                               ; preds = %70, %21, %4
  %72 = load ptr, ptr %6, align 8
  %73 = load i64, ptr %7, align 8
  %74 = trunc i64 %73 to i32
  %75 = call ptr @cstring_to_text_with_len(ptr noundef %72, i32 noundef %74)
  store ptr %75, ptr %10, align 8
  %76 = load ptr, ptr %10, align 8
  store ptr %76, ptr %5, align 8
  store i32 1, ptr %15, align 4
  br label %77

77:                                               ; preds = %71, %68
  call void @llvm.lifetime.end.p0(i64 8, ptr %11) #8
  call void @llvm.lifetime.end.p0(i64 8, ptr %10) #8
  %78 = load ptr, ptr %5, align 8
  ret ptr %78
}