; Function Attrs: nounwind uwtable
define internal fastcc ptr @varchar_input(ptr noundef %0, i64 noundef %1, i32 noundef %2, ptr noundef %3) unnamed_addr #0 {
  %5 = add i32 %2, -4
  %6 = icmp sgt i32 %2, 3
  %7 = sext i32 %5 to i64
  %8 = icmp ugt i64 %1, %7
  %or.cond = and i1 %6, %8
  br i1 %or.cond, label %9, label %.loopexit

9:                                                ; preds = %4
  %10 = trunc i64 %1 to i32
  %11 = tail call i32 @pg_mbcharcliplen(ptr noundef %0, i32 noundef %10, i32 noundef %5) #13
  %12 = sext i32 %11 to i64
  %.not2831 = icmp ugt i64 %1, %12
  br i1 %.not2831, label %.lr.ph, label %.loopexit

13:                                               ; preds = %.lr.ph
  %14 = add i64 %.02332, 1
  %exitcond.not = icmp eq i64 %14, %1
  br i1 %exitcond.not, label %.loopexit, label %.lr.ph, !llvm.loop !8

.lr.ph:                                           ; preds = %9, %13
  %.02332 = phi i64 [ %14, %13 ], [ %12, %9 ]
  %15 = getelementptr inbounds nuw i8, ptr %0, i64 %.02332
  %16 = load i8, ptr %15, align 1
  %.not = icmp eq i8 %16, 32
  br i1 %.not, label %13, label %17

17:                                               ; preds = %.lr.ph
  %18 = tail call zeroext i1 @errsave_start(ptr noundef %3, ptr noundef null) #13
  br i1 %18, label %19, label %.thread

19:                                               ; preds = %17
  %20 = tail call i32 @errcode(i32 noundef 16777346) #13
  %21 = tail call i32 (ptr, ...) @errmsg(ptr noundef nonnull @.str.3, i32 noundef %5) #13
  tail call void @errsave_finish(ptr noundef %3, ptr noundef nonnull @.str.1, i32 noundef 476, ptr noundef nonnull @__func__.varchar_input) #13
  br label %.thread

.loopexit:                                        ; preds = %13, %9, %4
  %.024 = phi i64 [ %1, %4 ], [ %12, %9 ], [ %12, %13 ]
  %22 = trunc i64 %.024 to i32
  %23 = tail call ptr @cstring_to_text_with_len(ptr noundef %0, i32 noundef %22) #13
  br label %.thread

.thread:                                          ; preds = %19, %17, %.loopexit
  %.1 = phi ptr [ %23, %.loopexit ], [ null, %17 ], [ null, %19 ]
  ret ptr %.1
}